; Function Attrs: mustprogress nofree norecurse nosync nounwind willreturn memory(read, inaccessiblemem: none) uwtable
define dso_local noundef zeroext range(i8 0, 32) i8 @_ZN5clang17computeDependenceEPNS_10AtomicExprE(ptr noundef readonly %0) local_unnamed_addr #0 {
  %2 = getelementptr inbounds nuw i8, ptr %0, i64 72
  %3 = load i32, ptr %2, align 8
  %4 = zext i32 %3 to i64
  %.idx = shl nuw nsw i64 %4, 3
  %5 = getelementptr inbounds nuw i8, ptr %0, i64 %.idx
  %.ptr15 = getelementptr inbounds nuw i8, ptr %5, i64 16
  %.not12 = icmp eq i32 %3, 0
  br i1 %.not12, label %._crit_edge, label %.lr.ph.preheader

.lr.ph.preheader:                                 ; preds = %1
  %.ptr = getelementptr inbounds nuw i8, ptr %0, i64 16
  br label %.lr.ph

.lr.ph:                                           ; preds = %.lr.ph.preheader, %.lr.ph
  %.014 = phi ptr [ %13, %.lr.ph ], [ %.ptr, %.lr.ph.preheader ]
  %.01113 = phi i8 [ %12, %.lr.ph ], [ 0, %.lr.ph.preheader ]
  %6 = load ptr, ptr %.014, align 8
  %7 = getelementptr inbounds nuw i8, ptr %6, i64 1
  %8 = load i16, ptr %7, align 1
  %9 = lshr i16 %8, 5
  %10 = trunc i16 %9 to i8
  %11 = and i8 %10, 31
  %12 = or i8 %11, %.01113
  %13 = getelementptr inbounds nuw i8, ptr %.014, i64 8
  %.not = icmp eq ptr %13, %.ptr15
  br i1 %.not, label %._crit_edge, label %.lr.ph

._crit_edge:                                      ; preds = %.lr.ph, %1
  %.011.lcssa = phi i8 [ 0, %1 ], [ %12, %.lr.ph ]
  ret i8 %.011.lcssa
}